target datalayout = "e-m:e-p270:32:32-p271:32:32-p272:64:64-i64:64-i128:128-f80:128-n8:16:32:64-S128"
target triple = "x86_64-pc-linux-gnu"

%struct.IpvideoContext = type { ptr, %struct.HpelDSPContext, ptr, ptr, ptr, ptr, ptr, i32, ptr, i32, i32, %struct.GetByteContext, %struct.GetByteContext, ptr, i32, i32, i32, [256 x i32] }
%struct.HpelDSPContext = type { [4 x [4 x ptr]], [4 x [4 x ptr]], [4 x [4 x ptr]], [4 x ptr] }
%struct.GetByteContext = type { ptr, ptr, ptr }

@.str.25 = private unnamed_addr constant [32 x i8] c"too little data for opcode 0xD\0A\00", align 1

; Function Attrs: alwaysinline nounwind uwtable
define internal i32 @bytestream_get_byte(ptr noundef %0) #4 {
  %2 = alloca ptr, align 8
  store ptr %0, ptr %2, align 8, !tbaa !94
  %3 = load ptr, ptr %2, align 8, !tbaa !94
  %4 = load ptr, ptr %3, align 8, !tbaa !59
  %5 = getelementptr inbounds i8, ptr %4, i64 1
  store ptr %5, ptr %3, align 8, !tbaa !59
  %6 = load ptr, ptr %2, align 8, !tbaa !94
  %7 = load ptr, ptr %6, align 8, !tbaa !59
  %8 = getelementptr inbounds i8, ptr %7, i64 -1
  %9 = getelementptr inbounds i8, ptr %8, i64 0
  %10 = load i8, ptr %9, align 1, !tbaa !62
  %11 = zext i8 %10 to i32
  ret i32 %11
}

; Function Attrs: alwaysinline nounwind uwtable
define internal i32 @bytestream2_get_byteu(ptr noundef %0) #4 {
  %2 = alloca ptr, align 8
  store ptr %0, ptr %2, align 8, !tbaa !67
  %3 = load ptr, ptr %2, align 8, !tbaa !67
  %4 = getelementptr inbounds nuw %struct.GetByteContext, ptr %3, i32 0, i32 0
  %5 = call i32 @bytestream_get_byte(ptr noundef %4)
  ret i32 %5
}

; Function Attrs: alwaysinline nounwind uwtable
define internal i32 @bytestream2_get_byte(ptr noundef %0) #4 {
  %2 = alloca i32, align 4
  %3 = alloca ptr, align 8
  store ptr %0, ptr %3, align 8, !tbaa !67
  %4 = load ptr, ptr %3, align 8, !tbaa !67
  %5 = getelementptr inbounds nuw %struct.GetByteContext, ptr %4, i32 0, i32 1
  %6 = load ptr, ptr %5, align 8, !tbaa !71
  %7 = load ptr, ptr %3, align 8, !tbaa !67
  %8 = getelementptr inbounds nuw %struct.GetByteContext, ptr %7, i32 0, i32 0
  %9 = load ptr, ptr %8, align 8, !tbaa !69
  %10 = ptrtoint ptr %6 to i64
  %11 = ptrtoint ptr %9 to i64
  %12 = sub i64 %10, %11
  %13 = icmp slt i64 %12, 1
  br i1 %13, label %14, label %20

14:                                               ; preds = %1
  %15 = load ptr, ptr %3, align 8, !tbaa !67
  %16 = getelementptr inbounds nuw %struct.GetByteContext, ptr %15, i32 0, i32 1
  %17 = load ptr, ptr %16, align 8, !tbaa !71
  %18 = load ptr, ptr %3, align 8, !tbaa !67
  %19 = getelementptr inbounds nuw %struct.GetByteContext, ptr %18, i32 0, i32 0
  store ptr %17, ptr %19, align 8, !tbaa !69
  store i32 0, ptr %2, align 4
  br label %23

20:                                               ; preds = %1
  %21 = load ptr, ptr %3, align 8, !tbaa !67
  %22 = call i32 @bytestream2_get_byteu(ptr noundef %21)
  store i32 %22, ptr %2, align 4
  br label %23

23:                                               ; preds = %20, %14
  %24 = load i32, ptr %2, align 4
  ret i32 %24
}

; Function Attrs: alwaysinline nounwind uwtable
define internal i32 @bytestream2_get_bytes_left(ptr noundef %0) #4 {
  %2 = alloca ptr, align 8
  store ptr %0, ptr %2, align 8, !tbaa !67
  %3 = load ptr, ptr %2, align 8, !tbaa !67
  %4 = getelementptr inbounds nuw %struct.GetByteContext, ptr %3, i32 0, i32 1
  %5 = load ptr, ptr %4, align 8, !tbaa !71
  %6 = load ptr, ptr %2, align 8, !tbaa !67
  %7 = getelementptr inbounds nuw %struct.GetByteContext, ptr %6, i32 0, i32 0
  %8 = load ptr, ptr %7, align 8, !tbaa !69
  %9 = ptrtoint ptr %5 to i64
  %10 = ptrtoint ptr %8 to i64
  %11 = sub i64 %9, %10
  %12 = trunc i64 %11 to i32
  ret i32 %12
}

; Function Attrs: nounwind uwtable
define internal i32 @ipvideo_decode_block_opcode_0xD(ptr noundef %0, ptr noundef %1) #1 {
  %3 = alloca i32, align 4
  %4 = alloca ptr, align 8
  %5 = alloca ptr, align 8
  %6 = alloca i32, align 4
  %7 = alloca [2 x i8], align 1
  %8 = alloca i32, align 4
  store ptr %0, ptr %4, align 8, !tbaa !29
  store ptr %1, ptr %5, align 8, !tbaa !53
  call void @llvm.lifetime.start.p0(i64 4, ptr %6) #11
  call void @llvm.lifetime.start.p0(i64 2, ptr %7) #11
  %9 = load ptr, ptr %4, align 8, !tbaa !29
  %10 = getelementptr inbounds nuw %struct.IpvideoContext, ptr %9, i32 0, i32 11
  %11 = call i32 @bytestream2_get_bytes_left(ptr noundef %10)
  %12 = icmp slt i32 %11, 4
  br i1 %12, label %13, label %17

13:                                               ; preds = %2
  %14 = load ptr, ptr %4, align 8, !tbaa !29
  %15 = getelementptr inbounds nuw %struct.IpvideoContext, ptr %14, i32 0, i32 0
  %16 = load ptr, ptr %15, align 8, !tbaa !31
  call void (ptr, i32, ptr, ...) @av_log(ptr noundef %16, i32 noundef 16, ptr noundef @.str.25)
  store i32 -1094995529, ptr %3, align 4
  store i32 1, ptr %8, align 4
  br label %64

17:                                               ; preds = %2
  store i32 0, ptr %6, align 4, !tbaa !61
  br label %18

18:                                               ; preds = %60, %17
  %19 = load i32, ptr %6, align 4, !tbaa !61
  %20 = icmp slt i32 %19, 8
  br i1 %20, label %21, label %63

21:                                               ; preds = %18
  %22 = load i32, ptr %6, align 4, !tbaa !61
  %23 = and i32 %22, 3
  %24 = icmp ne i32 %23, 0
  br i1 %24, label %36, label %25

25:                                               ; preds = %21
  %26 = load ptr, ptr %4, align 8, !tbaa !29
  %27 = getelementptr inbounds nuw %struct.IpvideoContext, ptr %26, i32 0, i32 11
  %28 = call i32 @bytestream2_get_byte(ptr noundef %27)
  %29 = trunc i32 %28 to i8
  %30 = getelementptr inbounds [2 x i8], ptr %7, i64 0, i64 0
  store i8 %29, ptr %30, align 1, !tbaa !62
  %31 = load ptr, ptr %4, align 8, !tbaa !29
  %32 = getelementptr inbounds nuw %struct.IpvideoContext, ptr %31, i32 0, i32 11
  %33 = call i32 @bytestream2_get_byte(ptr noundef %32)
  %34 = trunc i32 %33 to i8
  %35 = getelementptr inbounds [2 x i8], ptr %7, i64 0, i64 1
  store i8 %34, ptr %35, align 1, !tbaa !62
  br label %36

36:                                               ; preds = %25, %21
  %37 = load ptr, ptr %4, align 8, !tbaa !29
  %38 = getelementptr inbounds nuw %struct.IpvideoContext, ptr %37, i32 0, i32 13
  %39 = load ptr, ptr %38, align 8, !tbaa !77
  %40 = getelementptr inbounds [2 x i8], ptr %7, i64 0, i64 0
  %41 = load i8, ptr %40, align 1, !tbaa !62
  %42 = zext i8 %41 to i32
  %43 = trunc i32 %42 to i8
  call void @llvm.memset.p0.i64(ptr align 1 %39, i8 %43, i64 4, i1 false)
  %44 = load ptr, ptr %4, align 8, !tbaa !29
  %45 = getelementptr inbounds nuw %struct.IpvideoContext, ptr %44, i32 0, i32 13
  %46 = load ptr, ptr %45, align 8, !tbaa !77
  %47 = getelementptr inbounds i8, ptr %46, i64 4
  %48 = getelementptr inbounds [2 x i8], ptr %7, i64 0, i64 1
  %49 = load i8, ptr %48, align 1, !tbaa !62
  %50 = zext i8 %49 to i32
  %51 = trunc i32 %50 to i8
  call void @llvm.memset.p0.i64(ptr align 1 %47, i8 %51, i64 4, i1 false)
  %52 = load ptr, ptr %4, align 8, !tbaa !29
  %53 = getelementptr inbounds nuw %struct.IpvideoContext, ptr %52, i32 0, i32 15
  %54 = load i32, ptr %53, align 4, !tbaa !72
  %55 = load ptr, ptr %4, align 8, !tbaa !29
  %56 = getelementptr inbounds nuw %struct.IpvideoContext, ptr %55, i32 0, i32 13
  %57 = load ptr, ptr %56, align 8, !tbaa !77
  %58 = sext i32 %54 to i64
  %59 = getelementptr inbounds i8, ptr %57, i64 %58
  store ptr %59, ptr %56, align 8, !tbaa !77
  br label %60

60:                                               ; preds = %36
  %61 = load i32, ptr %6, align 4, !tbaa !61
  %62 = add nsw i32 %61, 1
  store i32 %62, ptr %6, align 4, !tbaa !61
  br label %18, !llvm.loop !131

63:                                               ; preds = %18
  store i32 0, ptr %3, align 4
  store i32 1, ptr %8, align 4
  br label %64

64:                                               ; preds = %63, %13
  call void @llvm.lifetime.end.p0(i64 2, ptr %7) #11
  call void @llvm.lifetime.end.p0(i64 4, ptr %6) #11
  %65 = load i32, ptr %3, align 4
  ret i32 %65
}