; Function Attrs: nounwind uwtable
define internal range(i32 -1094995529, 1) i32 @ipvideo_decode_block_opcode_0xD(ptr noundef captures(none) %0, ptr readnone captures(none) %1) #1 {
  %3 = getelementptr inbounds nuw i8, ptr %0, i64 488
  %4 = getelementptr inbounds nuw i8, ptr %0, i64 496
  %5 = load ptr, ptr %4, align 8, !tbaa !60
  %6 = load ptr, ptr %3, align 8, !tbaa !58
  %7 = ptrtoint ptr %5 to i64
  %8 = ptrtoint ptr %6 to i64
  %9 = sub i64 %7, %8
  %10 = trunc i64 %9 to i32
  %11 = icmp slt i32 %10, 4
  br i1 %11, label %14, label %.preheader

.preheader:                                       ; preds = %2
  %12 = getelementptr inbounds nuw i8, ptr %0, i64 536
  %13 = getelementptr inbounds nuw i8, ptr %0, i64 548
  br label %16

14:                                               ; preds = %2
  %15 = load ptr, ptr %0, align 8, !tbaa !27
  tail call void (ptr, i32, ptr, ...) @av_log(ptr noundef %15, i32 noundef 16, ptr noundef nonnull @.str.25) #9
  br label %.loopexit

16:                                               ; preds = %.preheader, %bytestream2_get_byte.exit13
  %.sroa.0.016 = phi i8 [ undef, %.preheader ], [ %.sroa.0.1, %bytestream2_get_byte.exit13 ]
  %.sroa.4.015 = phi i8 [ undef, %.preheader ], [ %.sroa.4.1, %bytestream2_get_byte.exit13 ]
  %.014 = phi i32 [ 0, %.preheader ], [ %42, %bytestream2_get_byte.exit13 ]
  %17 = and i32 %.014, 3
  %.not = icmp eq i32 %17, 0
  br i1 %.not, label %18, label %bytestream2_get_byte.exit13

18:                                               ; preds = %16
  %19 = load ptr, ptr %4, align 8, !tbaa !60
  %20 = load ptr, ptr %3, align 8, !tbaa !58
  %21 = ptrtoint ptr %19 to i64
  %22 = ptrtoint ptr %20 to i64
  %23 = sub i64 %21, %22
  %24 = icmp slt i64 %23, 1
  br i1 %24, label %bytestream2_get_byte.exit, label %25

25:                                               ; preds = %18
  %26 = getelementptr inbounds nuw i8, ptr %20, i64 1
  store ptr %26, ptr %3, align 8, !tbaa !53
  %27 = load i8, ptr %20, align 1, !tbaa !54
  %.pre = ptrtoint ptr %26 to i64
  br label %bytestream2_get_byte.exit

bytestream2_get_byte.exit:                        ; preds = %18, %25
  %.pre-phi = phi i64 [ %.pre, %25 ], [ %21, %18 ]
  %28 = phi ptr [ %26, %25 ], [ %19, %18 ]
  %.0.i = phi i8 [ %27, %25 ], [ 0, %18 ]
  %29 = sub i64 %21, %.pre-phi
  %30 = icmp slt i64 %29, 1
  br i1 %30, label %31, label %32

31:                                               ; preds = %bytestream2_get_byte.exit
  store ptr %19, ptr %3, align 8, !tbaa !58
  br label %bytestream2_get_byte.exit13

32:                                               ; preds = %bytestream2_get_byte.exit
  %33 = getelementptr inbounds nuw i8, ptr %28, i64 1
  store ptr %33, ptr %3, align 8, !tbaa !53
  %34 = load i8, ptr %28, align 1, !tbaa !54
  br label %bytestream2_get_byte.exit13

bytestream2_get_byte.exit13:                      ; preds = %32, %31, %16
  %.sroa.4.1 = phi i8 [ %.sroa.4.015, %16 ], [ 0, %31 ], [ %34, %32 ]
  %.sroa.0.1 = phi i8 [ %.sroa.0.016, %16 ], [ %.0.i, %31 ], [ %.0.i, %32 ]
  %35 = load ptr, ptr %12, align 8, !tbaa !67
  tail call void @llvm.memset.p0.i64(ptr noundef nonnull align 1 dereferenceable(4) %35, i8 %.sroa.0.1, i64 4, i1 false)
  %36 = load ptr, ptr %12, align 8, !tbaa !67
  %37 = getelementptr inbounds nuw i8, ptr %36, i64 4
  tail call void @llvm.memset.p0.i64(ptr noundef nonnull align 1 dereferenceable(4) %37, i8 %.sroa.4.1, i64 4, i1 false)
  %38 = load i32, ptr %13, align 4, !tbaa !63
  %39 = load ptr, ptr %12, align 8, !tbaa !67
  %40 = sext i32 %38 to i64
  %41 = getelementptr inbounds i8, ptr %39, i64 %40
  store ptr %41, ptr %12, align 8, !tbaa !67
  %42 = add nuw nsw i32 %.014, 1
  %exitcond.not = icmp eq i32 %42, 8
  br i1 %exitcond.not, label %.loopexit, label %16, !llvm.loop !112

.loopexit:                                        ; preds = %bytestream2_get_byte.exit13, %14
  %.011 = phi i32 [ -1094995529, %14 ], [ 0, %bytestream2_get_byte.exit13 ]
  ret i32 %.011
}